(dp0
S'dwz'
p1
I76
sS'arpwatch'
p2
I18
sS'nmap'
p3
I22
sS'bind9'
p4
I54
sS'cobertura'
p5
I50
sS'qemu-kvm'
p6
I12
sS'spamassassin'
p7
I11
sS'tftpd-hpa'
p8
I77
sS'crash'
p9
I75
sS'iotop'
p10
I48
sS'vsftpd'
p11
I43
sS'lshw'
p12
I57
sS'mutt'
p13
I40
sS'wget'
p14
I74
sS'transfig'
p15
I24
sS'watchdog'
p16
I29
sS'cups'
p17
I32
sS'lm-sensors'
p18
I4
sS'gpm'
p19
I34
sS'tomcat7'
p20
I66
sS'samba'
p21
I38
sS'mailman'
p22
I25
sS'tshark'
p23
I28
sS'pax'
p24
I35
sS'ipvsadm'
p25
I62
sS'apache2'
p26
I59
sS'subversion'
p27
I21
sS'pesign'
p28
I55
sS'dovecot-core'
p29
I63
sS'sane'
p30
I71
sS'finger'
p31
I20
sS'mksh'
p32
I64
sS'units'
p33
I15
sS'telnetd'
p34
I3
sS'memcached'
p35
I53
sS'ksh'
p36
I52
sS'marisa'
p37
I47
sS'smartmontools'
p38
I2
sS'lftp'
p39
I31
sS'squid'
p40
I13
sS'gitweb'
p41
I23
sS'autotrace'
p42
I73
sS'tcsh'
p43
I56
sS'emacs-nox'
p44
I49
sS'traceroute'
p45
I68
sS'supermin'
p46
I30
sS'quota'
p47
I67
sS'quagga'
p48
I46
sS'mstflint'
p49
I44
sS'unbound'
p50
I70
sS'cdparanoia'
p51
I60
sS'dcraw'
p52
I61
sS'iptraf-ng'
p53
I10
sS'php'
p54
I5
sS'amanda-server'
p55
I69
sS'crda'
p56
I58
sS'paps'
p57
I7
sS'rrdtool'
p58
I45
sS'mrtg'
p59
I17
sS'qrencode'
p60
I26
sS'mariadb-server'
p61
I36
sS'mc'
p62
I6
sS'mgetty-voice'
p63
I41
sS'mtr'
p64
I72
sS'logwatch'
p65
I27
sS'tree'
p66
I16
sS'sysstat'
p67
I37
sS'powertop'
p68
I51
sS'chrony'
p69
I14
sS'bacula-client'
p70
I65
sS'rdist'
p71
I78
sS'lynx'
p72
I1
sS'virt-top'
p73
I39
sS'docker'
p74
I8
sS'dstat'
p75
I42
sS'zsh'
p76
I33
sS'freeradius'
p77
I9
sS'nasm'
p78
I19
s.