(dp0
S'bacula-client'
p1
I65
sS'spamassassin'
p2
I11
sS'vsftpd'
p3
I43
sS'mutt'
p4
I40
sS'transfig'
p5
I24
sS'samba'
p6
I38
sS'tftpd-hpa'
p7
I77
sS'apache2'
p8
I59
sS'subversion'
p9
I21
sS'ksh'
p10
I52
sS'lftp'
p11
I31
sS'crash'
p12
I75
sS'dovecot-core'
p13
I63
sS'python3'
p14
I7
sS'python2'
p15
I16
sS'mariadb-server'
p16
I36
sS'trac'
p17
I5
sS'amanda-server'
p18
I69
sS'sane'
p19
I71
sS'supermin'
p20
I30
sS'freeradius'
p21
I9
sS'bash1.5'
p22
I1
sS'unbound'
p23
I70
sS'dcraw'
p24
I61
sS'pax'
p25
I35
sS'ipvsadm'
p26
I62
sS'pesign'
p27
I55
sS'finger'
p28
I20
sS'memcached'
p29
I53
sS'autotrace'
p30
I73
sS'quota'
p31
I67
sS'mstflint'
p32
I44
sS'iptraf-ng'
p33
I10
sS'mrtg'
p34
I17
sS'qrencode'
p35
I26
sS'mgetty-voice'
p36
I41
sS'sysstat'
p37
I37
sS'crda'
p38
I58
sS'openssl4'
p39
I10
sS'openssl2'
p40
I12
sS'nmap'
p41
I22
sS'mksh'
p42
I64
sS'virt-top'
p43
I39
sS'iotop'
p44
I48
sS'lshw'
p45
I57
sS'wget'
p46
I74
sS'watchdog'
p47
I29
sS'cups'
p48
I32
sS'lm-sensors'
p49
I4
sS'gpm'
p50
I34
sS'mailman'
p51
I25
sS'linux45'
p52
I3
sS'linux44'
p53
I8
sS'wordpress'
p54
I15
sS'bash1'
p55
I13
sS'bind9'
p56
I54
sS'marisa'
p57
I47
sS'squid'
p58
I13
sS'traceroute'
p59
I68
sS'lighttpd'
p60
I14
sS'quagga'
p61
I46
sS'cdparanoia'
p62
I60
sS'mc'
p63
I6
sS'mtr'
p64
I72
sS'tree'
p65
I16
sS'lynx'
p66
I1
sS'p7zip'
p67
I9
sS'zsh'
p68
I33
sS'arpwatch'
p69
I18
sS'cobertura'
p70
I50
sS'qemu-kvm'
p71
I12
sS'tomcat7'
p72
I66
sS'gitweb'
p73
I23
sS'rdist'
p74
I78
sS'glibc6.7'
p75
I11
sS'glibc6.6'
p76
I6
sS'tshark'
p77
I28
sS'dwz'
p78
I76
sS'units'
p79
I15
sS'telnetd'
p80
I3
sS'smartmontools'
p81
I2
sS'tcsh'
p82
I56
sS'emacs-nox'
p83
I49
sS'mosh'
p84
I2
sS'php'
p85
I5
sS'paps'
p86
I7
sS'rrdtool'
p87
I45
sS'logwatch'
p88
I27
sS'django'
p89
I4
sS'powertop'
p90
I51
sS'chrony'
p91
I14
sS'docker'
p92
I8
sS'dstat'
p93
I42
sS'nasm'
p94
I19
s.